target datalayout = "e-m:e-p270:32:32-p271:32:32-p272:64:64-i64:64-i128:128-f80:128-n8:16:32:64-S128"
target triple = "x86_64-unknown-linux-gnu"

%"class.absl::profiling_internal::SampleRecorder" = type { %"struct.std::atomic", %"struct.std::atomic", %"struct.std::atomic", %"struct.std::atomic.5", %"struct.absl::profiling_internal::(anonymous namespace)::Info", %"struct.std::atomic.9" }
%"struct.std::atomic" = type { %"struct.std::__atomic_base" }
%"struct.std::__atomic_base" = type { i64 }
%"struct.std::atomic.5" = type { %"struct.std::__atomic_base.6" }
%"struct.std::__atomic_base.6" = type { ptr }
%"struct.absl::profiling_internal::(anonymous namespace)::Info" = type <{ %"struct.absl::profiling_internal::Sample", %"struct.std::atomic", %"class.absl::Time", [4 x i8] }>
%"struct.absl::profiling_internal::Sample" = type { %"class.absl::Mutex", ptr, ptr, i64 }
%"class.absl::Mutex" = type { %"struct.std::atomic.7" }
%"struct.std::atomic.7" = type { %"struct.std::__atomic_base.8" }
%"struct.std::__atomic_base.8" = type { i64 }
%"class.absl::Time" = type { %"class.absl::Duration" }
%"class.absl::Duration" = type { %"class.absl::Duration::HiRep", i32 }
%"class.absl::Duration::HiRep" = type { i32, i32 }
%"struct.std::atomic.9" = type { %"struct.std::__atomic_base.10" }
%"struct.std::__atomic_base.10" = type { ptr }
%"class.absl::MutexLock" = type { ptr }
%"class.std::function" = type { %"class.std::_Function_base", ptr }
%"class.std::_Function_base" = type { %"union.std::_Any_data", ptr }
%"union.std::_Any_data" = type { %"union.std::_Nocopy_types" }
%"union.std::_Nocopy_types" = type { { i64, i64 } }

; Function Attrs: mustprogress nounwind uwtable
define linkonce_odr dso_local noundef zeroext i1 @_ZNKSt14_Function_base8_M_emptyEv(ptr noundef nonnull align 8 dereferenceable(24) %this) #7 comdat align 2 {
entry:
  %this.addr = alloca ptr, align 8
  store ptr %this, ptr %this.addr, align 8
  %this1 = load ptr, ptr %this.addr, align 8
  %_M_manager = getelementptr inbounds %"class.std::_Function_base", ptr %this1, i32 0, i32 1
  %0 = load ptr, ptr %_M_manager, align 8
  %tobool = icmp ne ptr %0, null
  %lnot = xor i1 %tobool, true
  ret i1 %lnot
}

; Function Attrs: mustprogress nounwind uwtable
define linkonce_odr dso_local noundef i32 @_ZStanSt12memory_orderSt23__memory_order_modifier(i32 noundef %__m, i32 noundef %__mod) #7 comdat {
entry:
  %__m.addr = alloca i32, align 4
  %__mod.addr = alloca i32, align 4
  store i32 %__m, ptr %__m.addr, align 4
  store i32 %__mod, ptr %__mod.addr, align 4
  %0 = load i32, ptr %__m.addr, align 4
  %1 = load i32, ptr %__mod.addr, align 4
  %and = and i32 %0, %1
  ret i32 %and
}

; Function Attrs: mustprogress nounwind uwtable
define linkonce_odr dso_local void @_ZN4absl9MutexLockD2Ev(ptr noundef nonnull align 8 dereferenceable(8) %this) unnamed_addr #7 comdat align 2 personality ptr @__gxx_personality_v0 {
entry:
  %this.addr = alloca ptr, align 8
  store ptr %this, ptr %this.addr, align 8
  %this1 = load ptr, ptr %this.addr, align 8
  %mu_ = getelementptr inbounds %"class.absl::MutexLock", ptr %this1, i32 0, i32 0
  %0 = load ptr, ptr %mu_, align 8
  invoke void @_ZN4absl5Mutex6UnlockEv(ptr noundef nonnull align 8 dereferenceable(8) %0)
          to label %invoke.cont unwind label %terminate.lpad

invoke.cont:                                      ; preds = %entry
  ret void

terminate.lpad:                                   ; preds = %entry
  %1 = landingpad { ptr, i32 }
          catch ptr null
  %2 = extractvalue { ptr, i32 } %1, 0
  call void @__clang_call_terminate(ptr %2) #18
  unreachable
}

; Function Attrs: mustprogress uwtable
define internal void @_ZNKSt8functionIFvRKN4absl18profiling_internal12_GLOBAL__N_14InfoEEEclES5_(ptr noundef nonnull align 8 dereferenceable(32) %this, ptr noundef nonnull align 8 dereferenceable(52) %__args) #4 align 2 {
entry:
  %this.addr = alloca ptr, align 8
  %__args.addr = alloca ptr, align 8
  store ptr %this, ptr %this.addr, align 8
  store ptr %__args, ptr %__args.addr, align 8
  %this1 = load ptr, ptr %this.addr, align 8
  %call = call noundef zeroext i1 @_ZNKSt14_Function_base8_M_emptyEv(ptr noundef nonnull align 8 dereferenceable(24) %this1)
  br i1 %call, label %if.then, label %if.end

if.then:                                          ; preds = %entry
  call void @_ZSt25__throw_bad_function_callv() #17
  unreachable

if.end:                                           ; preds = %entry
  %_M_invoker = getelementptr inbounds %"class.std::function", ptr %this1, i32 0, i32 1
  %0 = load ptr, ptr %_M_invoker, align 8
  %_M_functor = getelementptr inbounds %"class.std::_Function_base", ptr %this1, i32 0, i32 0
  %1 = load ptr, ptr %__args.addr, align 8
  call void %0(ptr noundef nonnull align 8 dereferenceable(16) %_M_functor, ptr noundef nonnull align 8 dereferenceable(52) %1)
  ret void
}

; Function Attrs: mustprogress uwtable
define linkonce_odr dso_local void @_ZN4absl9MutexLockC2EPNS_5MutexE(ptr noundef nonnull align 8 dereferenceable(8) %this, ptr noundef %mu) unnamed_addr #4 comdat align 2 {
entry:
  %this.addr = alloca ptr, align 8
  %mu.addr = alloca ptr, align 8
  store ptr %this, ptr %this.addr, align 8
  store ptr %mu, ptr %mu.addr, align 8
  %this1 = load ptr, ptr %this.addr, align 8
  %mu_ = getelementptr inbounds %"class.absl::MutexLock", ptr %this1, i32 0, i32 0
  %0 = load ptr, ptr %mu.addr, align 8
  store ptr %0, ptr %mu_, align 8
  %mu_2 = getelementptr inbounds %"class.absl::MutexLock", ptr %this1, i32 0, i32 0
  %1 = load ptr, ptr %mu_2, align 8
  call void @_ZN4absl5Mutex4LockEv(ptr noundef nonnull align 8 dereferenceable(8) %1)
  ret void
}

; Function Attrs: mustprogress nounwind uwtable
define internal noundef ptr @_ZNKSt6atomicIPN4absl18profiling_internal12_GLOBAL__N_14InfoEE4loadESt12memory_order(ptr noundef nonnull align 8 dereferenceable(8) %this, i32 noundef %__m) #7 align 2 {
entry:
  %this.addr.i = alloca ptr, align 8
  %__m.addr.i = alloca i32, align 4
  %__b.i = alloca i32, align 4
  %atomic-temp.i = alloca ptr, align 8
  %this.addr = alloca ptr, align 8
  %__m.addr = alloca i32, align 4
  store ptr %this, ptr %this.addr, align 8
  store i32 %__m, ptr %__m.addr, align 4
  %this1 = load ptr, ptr %this.addr, align 8
  %_M_b = getelementptr inbounds %"struct.std::atomic.5", ptr %this1, i32 0, i32 0
  %0 = load i32, ptr %__m.addr, align 4
  store ptr %_M_b, ptr %this.addr.i, align 8
  store i32 %0, ptr %__m.addr.i, align 4
  %this1.i = load ptr, ptr %this.addr.i, align 8
  %1 = load i32, ptr %__m.addr.i, align 4
  %call.i = call noundef i32 @_ZStanSt12memory_orderSt23__memory_order_modifier(i32 noundef %1, i32 noundef 65535)
  store i32 %call.i, ptr %__b.i, align 4
  %2 = load i32, ptr %__m.addr.i, align 4
  switch i32 %2, label %monotonic.i [
    i32 1, label %acquire.i
    i32 2, label %acquire.i
    i32 5, label %seqcst.i
  ]

monotonic.i:                                      ; preds = %entry
  %3 = load atomic i64, ptr %this1.i monotonic, align 8
  store i64 %3, ptr %atomic-temp.i, align 8
  br label %_ZNKSt13__atomic_baseIPN4absl18profiling_internal12_GLOBAL__N_14InfoEE4loadESt12memory_order.exit

acquire.i:                                        ; preds = %entry, %entry
  %4 = load atomic i64, ptr %this1.i acquire, align 8
  store i64 %4, ptr %atomic-temp.i, align 8
  br label %_ZNKSt13__atomic_baseIPN4absl18profiling_internal12_GLOBAL__N_14InfoEE4loadESt12memory_order.exit

seqcst.i:                                         ; preds = %entry
  %5 = load atomic i64, ptr %this1.i seq_cst, align 8
  store i64 %5, ptr %atomic-temp.i, align 8
  br label %_ZNKSt13__atomic_baseIPN4absl18profiling_internal12_GLOBAL__N_14InfoEE4loadESt12memory_order.exit

_ZNKSt13__atomic_baseIPN4absl18profiling_internal12_GLOBAL__N_14InfoEE4loadESt12memory_order.exit: ; preds = %seqcst.i, %acquire.i, %monotonic.i
  %6 = load ptr, ptr %atomic-temp.i, align 8
  ret ptr %6
}

; Function Attrs: mustprogress uwtable
define internal noundef i64 @_ZN4absl18profiling_internal14SampleRecorderINS0_12_GLOBAL__N_14InfoEE7IterateERKSt8functionIFvRKS3_EE(ptr noundef nonnull align 8 dereferenceable(96) %this, ptr noundef nonnull align 8 dereferenceable(32) %f) #4 align 2 personality ptr @__gxx_personality_v0 {
entry:
  %this.addr.i = alloca ptr, align 8
  %__m.addr.i = alloca i32, align 4
  %__b.i = alloca i32, align 4
  %atomic-temp.i = alloca i64, align 8
  %this.addr = alloca ptr, align 8
  %f.addr = alloca ptr, align 8
  %s = alloca ptr, align 8
  %l = alloca %"class.absl::MutexLock", align 8
  %exn.slot = alloca ptr, align 8
  %ehselector.slot = alloca i32, align 4
  store ptr %this, ptr %this.addr, align 8
  store ptr %f, ptr %f.addr, align 8
  %this1 = load ptr, ptr %this.addr, align 8
  %all_ = getelementptr inbounds %"class.absl::profiling_internal::SampleRecorder", ptr %this1, i32 0, i32 3
  %call = call noundef ptr @_ZNKSt6atomicIPN4absl18profiling_internal12_GLOBAL__N_14InfoEE4loadESt12memory_order(ptr noundef nonnull align 8 dereferenceable(8) %all_, i32 noundef 2) #3
  store ptr %call, ptr %s, align 8
  br label %while.cond

while.cond:                                       ; preds = %if.end, %entry
  %0 = load ptr, ptr %s, align 8
  %cmp = icmp ne ptr %0, null
  br i1 %cmp, label %while.body, label %while.end

while.body:                                       ; preds = %while.cond
  %1 = load ptr, ptr %s, align 8
  %init_mu = getelementptr inbounds %"struct.absl::profiling_internal::Sample", ptr %1, i32 0, i32 0
  call void @_ZN4absl9MutexLockC2EPNS_5MutexE(ptr noundef nonnull align 8 dereferenceable(8) %l, ptr noundef %init_mu)
  %2 = load ptr, ptr %s, align 8
  %dead = getelementptr inbounds %"struct.absl::profiling_internal::Sample", ptr %2, i32 0, i32 2
  %3 = load ptr, ptr %dead, align 8
  %cmp2 = icmp eq ptr %3, null
  br i1 %cmp2, label %if.then, label %if.end

if.then:                                          ; preds = %while.body
  %4 = load ptr, ptr %f.addr, align 8
  %5 = load ptr, ptr %s, align 8
  invoke void @_ZNKSt8functionIFvRKN4absl18profiling_internal12_GLOBAL__N_14InfoEEEclES5_(ptr noundef nonnull align 8 dereferenceable(32) %4, ptr noundef nonnull align 8 dereferenceable(52) %5)
          to label %invoke.cont unwind label %lpad

invoke.cont:                                      ; preds = %if.then
  br label %if.end

lpad:                                             ; preds = %if.then
  %6 = landingpad { ptr, i32 }
          cleanup
  %7 = extractvalue { ptr, i32 } %6, 0
  store ptr %7, ptr %exn.slot, align 8
  %8 = extractvalue { ptr, i32 } %6, 1
  store i32 %8, ptr %ehselector.slot, align 4
  call void @_ZN4absl9MutexLockD2Ev(ptr noundef nonnull align 8 dereferenceable(8) %l) #3
  br label %eh.resume

if.end:                                           ; preds = %invoke.cont, %while.body
  %9 = load ptr, ptr %s, align 8
  %next = getelementptr inbounds %"struct.absl::profiling_internal::Sample", ptr %9, i32 0, i32 1
  %10 = load ptr, ptr %next, align 8
  store ptr %10, ptr %s, align 8
  call void @_ZN4absl9MutexLockD2Ev(ptr noundef nonnull align 8 dereferenceable(8) %l) #3
  br label %while.cond, !llvm.loop !18

while.end:                                        ; preds = %while.cond
  %dropped_samples_ = getelementptr inbounds %"class.absl::profiling_internal::SampleRecorder", ptr %this1, i32 0, i32 0
  store ptr %dropped_samples_, ptr %this.addr.i, align 8
  store i32 0, ptr %__m.addr.i, align 4
  %this1.i = load ptr, ptr %this.addr.i, align 8
  %11 = load i32, ptr %__m.addr.i, align 4
  %call.i = invoke noundef i32 @_ZStanSt12memory_orderSt23__memory_order_modifier(i32 noundef %11, i32 noundef 65535)
          to label %invoke.cont.i unwind label %terminate.lpad.i

invoke.cont.i:                                    ; preds = %while.end
  store i32 %call.i, ptr %__b.i, align 4
  %12 = load i32, ptr %__m.addr.i, align 4
  switch i32 %12, label %monotonic.i [
    i32 1, label %acquire.i
    i32 2, label %acquire.i
    i32 5, label %seqcst.i
  ]

monotonic.i:                                      ; preds = %invoke.cont.i
  %13 = load atomic i64, ptr %this1.i monotonic, align 8
  store i64 %13, ptr %atomic-temp.i, align 8
  br label %_ZNKSt13__atomic_baseImE4loadESt12memory_order.exit

acquire.i:                                        ; preds = %invoke.cont.i, %invoke.cont.i
  %14 = load atomic i64, ptr %this1.i acquire, align 8
  store i64 %14, ptr %atomic-temp.i, align 8
  br label %_ZNKSt13__atomic_baseImE4loadESt12memory_order.exit

seqcst.i:                                         ; preds = %invoke.cont.i
  %15 = load atomic i64, ptr %this1.i seq_cst, align 8
  store i64 %15, ptr %atomic-temp.i, align 8
  br label %_ZNKSt13__atomic_baseImE4loadESt12memory_order.exit

terminate.lpad.i:                                 ; preds = %while.end
  %16 = landingpad { ptr, i32 }
          catch ptr null
  %17 = extractvalue { ptr, i32 } %16, 0
  call void @__clang_call_terminate(ptr %17) #18
  unreachable

_ZNKSt13__atomic_baseImE4loadESt12memory_order.exit: ; preds = %seqcst.i, %acquire.i, %monotonic.i
  %18 = load i64, ptr %atomic-temp.i, align 8
  ret i64 %18

eh.resume:                                        ; preds = %lpad
  %exn = load ptr, ptr %exn.slot, align 8
  %sel = load i32, ptr %ehselector.slot, align 4
  %lpad.val = insertvalue { ptr, i32 } poison, ptr %exn, 0
  %lpad.val4 = insertvalue { ptr, i32 } %lpad.val, i32 %sel, 1
  resume { ptr, i32 } %lpad.val4
}