; Function Attrs: mustprogress uwtable
define internal fastcc void @_ZN4absl18profiling_internal14SampleRecorderINS0_12_GLOBAL__N_14InfoEE7IterateERKSt8functionIFvRKS3_EE(ptr nocapture noundef nonnull readonly align 8 dereferenceable(96) %this, ptr noundef nonnull align 8 dereferenceable(32) %f) unnamed_addr #3 align 2 personality ptr @__gxx_personality_v0 {
entry:
  %all_ = getelementptr inbounds i8, ptr %this, i64 24
  %0 = load atomic i64, ptr %all_ acquire, align 8
  %atomic-temp.i.0.i = inttoptr i64 %0 to ptr
  %_M_manager.i.i = getelementptr inbounds i8, ptr %f, i64 16
  %_M_invoker.i = getelementptr inbounds i8, ptr %f, i64 24
  br label %while.cond

while.cond:                                       ; preds = %if.end, %entry
  %s.0 = phi ptr [ %atomic-temp.i.0.i, %entry ], [ %6, %if.end ]
  %cmp.not = icmp eq ptr %s.0, null
  br i1 %cmp.not, label %while.end, label %while.body

while.body:                                       ; preds = %while.cond
  tail call void @_ZN4absl5Mutex4LockEv(ptr noundef nonnull align 8 dereferenceable(8) %s.0)
  %dead = getelementptr inbounds i8, ptr %s.0, i64 16
  %1 = load ptr, ptr %dead, align 8
  %cmp2 = icmp eq ptr %1, null
  br i1 %cmp2, label %if.then, label %if.end

if.then:                                          ; preds = %while.body
  %2 = load ptr, ptr %_M_manager.i.i, align 8
  %tobool.not.i.i = icmp eq ptr %2, null
  br i1 %tobool.not.i.i, label %if.then.i, label %if.end.i

if.then.i:                                        ; preds = %if.then
  invoke void @_ZSt25__throw_bad_function_callv() #24
          to label %.noexc unwind label %lpad.loopexit.split-lp

.noexc:                                           ; preds = %if.then.i
  unreachable

if.end.i:                                         ; preds = %if.then
  %3 = load ptr, ptr %_M_invoker.i, align 8
  invoke void %3(ptr noundef nonnull align 8 dereferenceable(16) %f, ptr noundef nonnull align 8 dereferenceable(52) %s.0)
          to label %if.end unwind label %lpad.loopexit

lpad.loopexit:                                    ; preds = %if.end.i
  %lpad.loopexit10 = landingpad { ptr, i32 }
          cleanup
  br label %lpad

lpad.loopexit.split-lp:                           ; preds = %if.then.i
  %lpad.loopexit.split-lp11 = landingpad { ptr, i32 }
          cleanup
  br label %lpad

lpad:                                             ; preds = %lpad.loopexit.split-lp, %lpad.loopexit
  %lpad.phi = phi { ptr, i32 } [ %lpad.loopexit10, %lpad.loopexit ], [ %lpad.loopexit.split-lp11, %lpad.loopexit.split-lp ]
  invoke void @_ZN4absl5Mutex6UnlockEv(ptr noundef nonnull align 8 dereferenceable(8) %s.0)
          to label %_ZN4absl9MutexLockD2Ev.exit unwind label %terminate.lpad.i

terminate.lpad.i:                                 ; preds = %lpad
  %4 = landingpad { ptr, i32 }
          catch ptr null
  %5 = extractvalue { ptr, i32 } %4, 0
  tail call void @__clang_call_terminate(ptr %5) #23
  unreachable

_ZN4absl9MutexLockD2Ev.exit:                      ; preds = %lpad
  resume { ptr, i32 } %lpad.phi

if.end:                                           ; preds = %if.end.i, %while.body
  %next = getelementptr inbounds i8, ptr %s.0, i64 8
  %6 = load ptr, ptr %next, align 8
  invoke void @_ZN4absl5Mutex6UnlockEv(ptr noundef nonnull align 8 dereferenceable(8) %s.0)
          to label %while.cond unwind label %terminate.lpad.i7, !llvm.loop !69

terminate.lpad.i7:                                ; preds = %if.end
  %7 = landingpad { ptr, i32 }
          catch ptr null
  %8 = extractvalue { ptr, i32 } %7, 0
  tail call void @__clang_call_terminate(ptr %8) #23
  unreachable

while.end:                                        ; preds = %while.cond
  %9 = load atomic i64, ptr %this monotonic, align 8
  ret void
}